target datalayout = "e-m:e-p270:32:32-p271:32:32-p272:64:64-i64:64-i128:128-f80:128-n8:16:32:64-S128"
target triple = "x86_64-pc-linux-gnu"

%struct.Vec_Int_t_ = type { i32, i32, ptr }
%struct.Abc_Frame_t_ = type { ptr, ptr, ptr, ptr, ptr, ptr, ptr, ptr, ptr, ptr, i32, i32, i32, i32, i32, ptr, float, float, i32, i32, ptr, ptr, ptr, double, double, ptr, ptr, ptr, ptr, ptr, ptr, ptr, ptr, ptr, ptr, ptr, ptr, float, ptr, i32, ptr, ptr, ptr, ptr, ptr, i32, i32, i32, i32, i32, i32, ptr, ptr, ptr, ptr, ptr, ptr, i32, i32, ptr, ptr, ptr, ptr, ptr, ptr, ptr, ptr, ptr, ptr, ptr, ptr, ptr, ptr, ptr, ptr, ptr, ptr, ptr, ptr, ptr, ptr, ptr, ptr, ptr, ptr, ptr, ptr, ptr, ptr }

@.str.1 = private unnamed_addr constant [57 x i8] c"ABC framework is not initialized by calling Abc_Start()\0A\00", align 1

; Function Attrs: inlinehint nounwind uwtable
define internal void @Vec_IntFreeP(ptr noundef %0) #2 {
  %2 = alloca ptr, align 8
  store ptr %0, ptr %2, align 8, !tbaa !19
  %3 = load ptr, ptr %2, align 8, !tbaa !19
  %4 = load ptr, ptr %3, align 8, !tbaa !8
  %5 = icmp eq ptr %4, null
  br i1 %5, label %6, label %7

6:                                                ; preds = %1
  br label %32

7:                                                ; preds = %1
  %8 = load ptr, ptr %2, align 8, !tbaa !19
  %9 = load ptr, ptr %8, align 8, !tbaa !8
  %10 = getelementptr inbounds nuw %struct.Vec_Int_t_, ptr %9, i32 0, i32 2
  %11 = load ptr, ptr %10, align 8, !tbaa !17
  %12 = icmp ne ptr %11, null
  br i1 %12, label %13, label %21

13:                                               ; preds = %7
  %14 = load ptr, ptr %2, align 8, !tbaa !19
  %15 = load ptr, ptr %14, align 8, !tbaa !8
  %16 = getelementptr inbounds nuw %struct.Vec_Int_t_, ptr %15, i32 0, i32 2
  %17 = load ptr, ptr %16, align 8, !tbaa !17
  call void @free(ptr noundef %17) #13
  %18 = load ptr, ptr %2, align 8, !tbaa !19
  %19 = load ptr, ptr %18, align 8, !tbaa !8
  %20 = getelementptr inbounds nuw %struct.Vec_Int_t_, ptr %19, i32 0, i32 2
  store ptr null, ptr %20, align 8, !tbaa !17
  br label %22

21:                                               ; preds = %7
  br label %22

22:                                               ; preds = %21, %13
  %23 = load ptr, ptr %2, align 8, !tbaa !19
  %24 = load ptr, ptr %23, align 8, !tbaa !8
  %25 = icmp ne ptr %24, null
  br i1 %25, label %26, label %30

26:                                               ; preds = %22
  %27 = load ptr, ptr %2, align 8, !tbaa !19
  %28 = load ptr, ptr %27, align 8, !tbaa !8
  call void @free(ptr noundef %28) #13
  %29 = load ptr, ptr %2, align 8, !tbaa !19
  store ptr null, ptr %29, align 8, !tbaa !8
  br label %31

30:                                               ; preds = %22
  br label %31

31:                                               ; preds = %30, %26
  br label %32

32:                                               ; preds = %31, %6
  ret void
}

; Function Attrs: nounwind uwtable
define void @Abc_FrameGiaInputMiniLut2(ptr noundef %0, ptr noundef %1) #0 {
  %3 = alloca ptr, align 8
  %4 = alloca ptr, align 8
  store ptr %0, ptr %3, align 8, !tbaa !58
  store ptr %1, ptr %4, align 8, !tbaa !60
  %5 = load ptr, ptr %3, align 8, !tbaa !58
  %6 = icmp eq ptr %5, null
  br i1 %6, label %7, label %9

7:                                                ; preds = %2
  %8 = call i32 (ptr, ...) @printf(ptr noundef @.str.1)
  br label %9

9:                                                ; preds = %7, %2
  %10 = load ptr, ptr %3, align 8, !tbaa !58
  %11 = getelementptr inbounds nuw %struct.Abc_Frame_t_, ptr %10, i32 0, i32 83
  call void @Vec_IntFreeP(ptr noundef %11)
  %12 = load ptr, ptr %3, align 8, !tbaa !58
  %13 = getelementptr inbounds nuw %struct.Abc_Frame_t_, ptr %12, i32 0, i32 81
  call void @Gia_ManStopP(ptr noundef %13)
  %14 = load ptr, ptr %4, align 8, !tbaa !60
  %15 = load ptr, ptr %3, align 8, !tbaa !58
  %16 = getelementptr inbounds nuw %struct.Abc_Frame_t_, ptr %15, i32 0, i32 83
  %17 = call ptr @Gia_ManFromMiniLut2(ptr noundef %14, ptr noundef %16)
  %18 = load ptr, ptr %3, align 8, !tbaa !58
  %19 = getelementptr inbounds nuw %struct.Abc_Frame_t_, ptr %18, i32 0, i32 81
  store ptr %17, ptr %19, align 8, !tbaa !128
  ret void
}