; Function Attrs: nounwind uwtable
define void @Abc_FrameGiaInputMiniLut2(ptr noundef %0, ptr noundef readonly captures(none) %1) local_unnamed_addr #2 {
  %3 = icmp eq ptr %0, null
  br i1 %3, label %4, label %5

4:                                                ; preds = %2
  %puts = tail call i32 @puts(ptr nonnull dereferenceable(1) @str.20)
  br label %5

5:                                                ; preds = %4, %2
  %6 = getelementptr inbounds nuw i8, ptr %0, i64 600
  %7 = load ptr, ptr %6, align 8, !tbaa !38
  %8 = icmp eq ptr %7, null
  br i1 %8, label %Vec_IntFreeP.exit, label %9

9:                                                ; preds = %5
  %10 = getelementptr inbounds nuw i8, ptr %7, i64 8
  %11 = load ptr, ptr %10, align 8, !tbaa !11
  %.not.i = icmp eq ptr %11, null
  br i1 %.not.i, label %14, label %.thread.i

.thread.i:                                        ; preds = %9
  tail call void @free(ptr noundef nonnull %11) #25
  %12 = load ptr, ptr %6, align 8, !tbaa !38
  %13 = getelementptr inbounds nuw i8, ptr %12, i64 8
  store ptr null, ptr %13, align 8, !tbaa !11
  br label %14

14:                                               ; preds = %.thread.i, %9
  %15 = phi ptr [ %12, %.thread.i ], [ %7, %9 ]
  tail call void @free(ptr noundef nonnull %15) #25
  store ptr null, ptr %6, align 8, !tbaa !38
  br label %Vec_IntFreeP.exit

Vec_IntFreeP.exit:                                ; preds = %5, %14
  %16 = getelementptr inbounds nuw i8, ptr %0, i64 584
  tail call void @Gia_ManStopP(ptr noundef nonnull %16) #25
  %17 = tail call ptr @Gia_ManFromMiniLut2(ptr noundef %1, ptr noundef nonnull %6)
  store ptr %17, ptr %16, align 8, !tbaa !111
  ret void
}